(dp0
S'occurrenceseriation'
p1
NsS'verbose'
p2
I01
sS'frequency'
p3
I1
sS'threshold'
p4
NsS'occurrence'
p5
NsS'stats'
p6
NsS'shapefile'
p7
NsS'noscreen'
p8
I1
sS'mst'
p9
NsS'excel'
p10
I1
sS'bootstrapCI'
p11
NsS'continuityroot'
p12
NsS'atlas'
p13
I1
sS'filtered'
p14
I1
sS'pairwisefile'
p15
NsS'continuity'
p16
NsS'allsolutions'
p17
NsS'screen'
p18
NsS'largestonly'
p19
NsS'outputdirectory'
p20
S'tmp'
p21
sS'bootstrapSignificance'
p22
F0.95
sS'frequencyseriation'
p23
I1
sS'graphroot'
p24
NsS'individualfileoutput'
p25
NsS'xyfile'
p26
NsS'graphs'
p27
I0
sS'debug'
p28
NsS'noheader'
p29
NsS'inputfile'
p30
S'pfg-cpl.txt'
p31
s.