ccopy_reg
_reconstructor
p0
(cnetworkx.classes.graph
Graph
p1
c__builtin__
object
p2
Ntp3
Rp4
(dp5
S'node'
p6
(dp7
S'11-O-10'
p8
(dp9
S'name'
p10
g8
ssS'13-N-21'
p11
(dp12
g10
g11
ssS'13-P-8'
p13
(dp14
g10
g13
ssS'13-N-16'
p15
(dp16
g10
g15
ssS'13-P-10'
p17
(dp18
g10
g17
ssS'13-N-15'
p19
(dp20
g10
g19
ssS'13-O-5'
p21
(dp22
g10
g21
ssS'13-O-7'
p23
(dp24
g10
g23
ssS'Holden_Lake'
p25
(dp26
g10
g25
ssS'13-N-4'
p27
(dp28
g10
g27
ssS'13-N-5'
p29
(dp30
g10
g29
ssS'11-N-4'
p31
(dp32
g10
g31
ssS'12-O-5'
p33
(dp34
g10
g33
ssS'12-N-3'
p35
(dp36
g10
g35
ssS'11-N-1'
p37
(dp38
g10
g37
ssS'13-P-1'
p39
(dp40
g10
g39
ssS'13-O-11'
p41
(dp42
g10
g41
ssS'13-O-10'
p43
(dp44
g10
g43
ssS'11-N-9'
p45
(dp46
g10
g45
sssS'graph'
p47
(dp48
S'is_directed'
p49
I00
ssS'edge'
p50
(dp51
g8
(dp52
g11
(dp53
S'weight'
p54
S'DUDUDMDDDM'
p55
ssg13
(dp56
g54
S'UUDUDDMDMD'
p57
ssg15
(dp58
g54
S'UDDUUDMMMM'
p59
ssg17
(dp60
g54
S'UUDUDDMDDD'
p61
ssg19
(dp62
g54
S'UUDUUDDDDD'
p63
ssg21
(dp64
g54
S'UDDUDDDDDD'
p65
ssg23
(dp66
g54
S'UDDUDDDDDD'
p67
ssg25
(dp68
g54
S'UDDDUMDDDM'
p69
ssg27
(dp70
g54
S'UUDUDDMMMM'
p71
ssg29
(dp72
g54
S'UUDUUMMMMM'
p73
ssg31
(dp74
g54
S'UDDUDMMMMM'
p75
ssg33
(dp76
g54
S'UDDUDDDDMM'
p77
ssg35
(dp78
g54
S'UDDUUMDDDM'
p79
ssg37
(dp80
g54
S'DUDUDMMMDM'
p81
ssg39
(dp82
g54
S'DUDUDDMDMD'
p83
ssg41
(dp84
g54
S'DUUDDUMUMU'
p85
ssg43
(dp86
g54
S'DUUDUUMUMM'
p87
ssg45
(dp88
g54
S'UDUDUMMMMM'
p89
sssg11
(dp90
g8
g53
sg13
(dp91
g54
S'DUUDUUDUDU'
p92
ssg15
(dp93
g54
S'DUUDDUDDDM'
p94
ssg21
(dp95
g54
S'DUDUUUUUUU'
p96
ssg19
(dp97
g54
S'UDUDUDDUDD'
p98
ssg17
(dp99
g54
S'DUDDUUDUUU'
p100
ssg23
(dp101
g54
S'DUDUUUUDUU'
p102
ssg25
(dp103
g54
S'DUDUDMUDUM'
p104
ssg27
(dp105
g54
S'DUUDUUDDDM'
p106
ssg29
(dp107
g54
S'DUUDDMDDDM'
p108
ssg31
(dp109
g54
S'DUDDUMDDDM'
p110
ssg33
(dp111
g54
S'DUDUUUUDDM'
p112
ssg35
(dp113
g54
S'DUDUDMUDUM'
p114
ssg37
(dp115
g54
S'DUDUUMDDUM'
p116
ssg39
(dp117
g54
S'DDDDUUDUDU'
p118
ssg41
(dp119
g54
S'DUUDDUDUDU'
p120
ssg43
(dp121
g54
S'DUUDUUDUDM'
p122
ssg45
(dp123
g54
S'UUDDUMDDDM'
p124
sssg13
(dp125
g8
g56
sg11
g91
sg15
(dp126
g54
S'DUUMDDMDMD'
p127
ssg21
(dp128
g54
S'UUDUDDUDUD'
p129
ssg19
(dp130
g54
S'DDUDUUDUDU'
p131
ssg17
(dp132
g54
S'DUDMUUMUUD'
p133
ssg23
(dp134
g54
S'UUDUDDUDUD'
p135
ssg25
(dp136
g54
S'DUDUDDUDUD'
p137
ssg27
(dp138
g54
S'DUUMDDMDMD'
p139
ssg29
(dp140
g54
S'UUUMDDMDMD'
p141
ssg31
(dp142
g54
S'UUDUDDMDMD'
p143
ssg33
(dp144
g54
S'UUDUDDUDMD'
p145
ssg35
(dp146
g54
S'UUDUDDUDUD'
p147
ssg37
(dp148
g54
S'UUDUDDMDUD'
p149
ssg39
(dp150
g54
S'UDDUDDMUMU'
p151
ssg41
(dp152
g54
S'DUDMDDMDMD'
p153
ssg43
(dp154
g54
S'DUUMDDMDMD'
p155
ssg45
(dp156
g54
S'UUDMDDMDMD'
p157
sssg15
(dp158
g8
g58
sg11
g93
sg13
g126
sg21
(dp159
g54
S'UUDUUDUUUU'
p160
ssg19
(dp161
g54
S'DUUDUUDDDD'
p162
ssg17
(dp163
g54
S'UDDMUUMUUU'
p164
ssg23
(dp165
g54
S'UUDUUDUUUU'
p166
ssg25
(dp167
g54
S'DUDUDDUUUM'
p168
ssg27
(dp169
g54
S'UDDMUDMMMM'
p170
ssg29
(dp171
g54
S'UDUMDDMMMM'
p172
ssg31
(dp173
g54
S'UUDUUDMMMM'
p174
ssg33
(dp175
g54
S'UUDUUDUUMM'
p176
ssg35
(dp177
g54
S'UUDUDDUUUM'
p178
ssg37
(dp179
g54
S'UDDUUDMMUM'
p180
ssg39
(dp181
g54
S'UDDUUUMUMU'
p182
ssg41
(dp183
g54
S'UUDMDDMUMU'
p184
ssg43
(dp185
g54
S'UDDMUUMUMM'
p186
ssg45
(dp187
g54
S'UDDMUDMMMM'
p188
sssg17
(dp189
g8
g60
sg11
g99
sg13
g132
sg15
g163
sg19
(dp190
g54
S'DDUDUUDUUU'
p191
ssg21
(dp192
g54
S'DDUDUUDUUU'
p193
ssg23
(dp194
g54
S'UUDUDDUDDD'
p195
ssg25
(dp196
g54
S'UDUDUUDUUU'
p197
ssg27
(dp198
g54
S'DUUMDDMDDD'
p199
ssg29
(dp200
g54
S'UDUMDDMDDD'
p201
ssg31
(dp202
g54
S'UUDUDDMDDD'
p203
ssg33
(dp204
g54
S'UUDUDDUDDD'
p205
ssg35
(dp206
g54
S'UUDUDDUDDD'
p207
ssg37
(dp208
g54
S'UUDUDDMDDD'
p209
ssg39
(dp210
g54
S'UDDUDDMDDU'
p211
ssg41
(dp212
g54
S'DUUMDDMDDD'
p213
ssg43
(dp214
g54
S'DUUMDDMDDD'
p215
ssg45
(dp216
g54
S'UUDMDDMDDD'
p217
sssg19
(dp218
g8
g62
sg11
g97
sg13
g130
sg15
g161
sg21
(dp219
g54
S'DUDUUUDUDD'
p220
ssg17
g190
sg23
(dp221
g54
S'DUDUUUDUUD'
p222
ssg25
(dp223
g54
S'DUDUUDDUUD'
p224
ssg27
(dp225
g54
S'DDUDUUDDDD'
p226
ssg29
(dp227
g54
S'DDUDDDDDDD'
p228
ssg31
(dp229
g54
S'UUDDUDDDDD'
p230
ssg33
(dp231
g54
S'DUDUUUDUDD'
p232
ssg35
(dp233
g54
S'DUDUUDDDDD'
p234
ssg37
(dp235
g54
S'UDDUUDDDDD'
p236
ssg39
(dp237
g54
S'UDDDUUDUDU'
p238
ssg41
(dp239
g54
S'DUUDDUDUDU'
p240
ssg43
(dp241
g54
S'DUUDUUDUDD'
p242
ssg45
(dp243
g54
S'UDDDUDDDDD'
p244
sssg21
(dp245
g8
g64
sg11
g95
sg13
g128
sg15
g159
sg19
g219
sg17
g192
sg23
(dp246
g54
S'DUUUDDUDUD'
p247
ssg25
(dp248
g54
S'DUDUDDDDUD'
p249
ssg27
(dp250
g54
S'DDUDDUDDDD'
p251
ssg29
(dp252
g54
S'DDUDDDDDDD'
p253
ssg31
(dp254
g54
S'UDDDDDDDDD'
p255
ssg33
(dp256
g54
S'DDUUDDDDDD'
p257
ssg35
(dp258
g54
S'UDUUDDDDDD'
p259
ssg37
(dp260
g54
S'UDUUUDDDUD'
p261
ssg39
(dp262
g54
S'UDUDUUDUDU'
p263
ssg41
(dp264
g54
S'DUUDDDDUDU'
p265
ssg43
(dp266
g54
S'DDUDDUDUDD'
p267
ssg45
(dp268
g54
S'UDDDUDDDDD'
p269
sssg23
(dp270
g8
g66
sg11
g101
sg13
g134
sg15
g165
sg17
g194
sg19
g221
sg21
g246
sg25
(dp271
g54
S'UDUDUUUUDU'
p272
ssg27
(dp273
g54
S'DDUDDUDDDD'
p274
ssg29
(dp275
g54
S'DDUDDDDDDD'
p276
ssg31
(dp277
g54
S'UDDDDDDDDD'
p278
ssg33
(dp279
g54
S'UDUUUDDDDD'
p280
ssg35
(dp281
g54
S'UDUUDDDDDD'
p282
ssg37
(dp283
g54
S'UDDUUDDDDD'
p284
ssg39
(dp285
g54
S'UDDDUUDUDU'
p286
ssg41
(dp287
g54
S'DUUDDUDUDU'
p288
ssg43
(dp289
g54
S'DDUDDUDUDD'
p290
ssg45
(dp291
g54
S'UDDDUDDDDD'
p292
sssg25
(dp293
g11
g103
sg13
g136
sg15
g167
sg21
g248
sg19
g223
sg17
g196
sg23
g271
sg39
(dp294
g54
S'UDUDUUDUDU'
p295
ssg27
(dp296
g54
S'UDUDUUDDDM'
p297
ssg29
(dp298
g54
S'UDUDDMDDDM'
p299
ssg31
(dp300
g54
S'UDDDUMDDDM'
p301
ssg33
(dp302
g54
S'UDUDUUDDDM'
p303
ssg35
(dp304
g54
S'UDUDDMDDDM'
p305
ssg37
(dp306
g54
S'UDUDUMDDDM'
p307
ssg8
g68
sg41
(dp308
g54
S'UDUDDUDUDU'
p309
ssg43
(dp310
g54
S'UDUDUUDUDM'
p311
ssg45
(dp312
g54
S'UDDDUMDDDM'
p313
sssg27
(dp314
g8
g70
sg11
g105
sg13
g138
sg15
g169
sg17
g198
sg19
g225
sg21
g250
sg23
g273
sg25
g296
sg29
(dp315
g54
S'UDUMDDMMMM'
p316
ssg31
(dp317
g54
S'UUDUDDMMMM'
p318
ssg33
(dp319
g54
S'UUDUUDUUMM'
p320
ssg35
(dp321
g54
S'UUDUDDUUUM'
p322
ssg37
(dp323
g54
S'UDDUUDMMUM'
p324
ssg39
(dp325
g54
S'DUUDDDMDMD'
p326
ssg41
(dp327
g54
S'DUDMDDMUMU'
p328
ssg43
(dp329
g54
S'DUDMDUMUMM'
p330
ssg45
(dp331
g54
S'UDDMUDMMMM'
p332
sssg29
(dp333
g8
g72
sg11
g107
sg13
g140
sg15
g171
sg17
g200
sg19
g227
sg21
g252
sg23
g275
sg25
g298
sg27
g315
sg31
(dp334
g54
S'UUDUUMMMMM'
p335
ssg33
(dp336
g54
S'UUDUUUUUMM'
p337
ssg35
(dp338
g54
S'UUDUUMUUUM'
p339
ssg37
(dp340
g54
S'UUDUUMMMUM'
p341
ssg39
(dp342
g54
S'DUUDDDMDMD'
p343
ssg41
(dp344
g54
S'DUDMMUMUMU'
p345
ssg43
(dp346
g54
S'DUDMUUMUMM'
p347
ssg45
(dp348
g54
S'UUDMUMMMMM'
p349
sssg31
(dp350
g8
g74
sg11
g109
sg13
g142
sg15
g173
sg17
g202
sg19
g229
sg21
g254
sg23
g277
sg25
g300
sg27
g317
sg29
g334
sg33
(dp351
g54
S'DDUUUUUUMM'
p352
ssg35
(dp353
g54
S'DDUUDMUUUM'
p354
ssg37
(dp355
g54
S'UDUUUMMMUM'
p356
ssg39
(dp357
g54
S'DUDUDDMDMD'
p358
ssg41
(dp359
g54
S'DUUDDUMUMU'
p360
ssg43
(dp361
g54
S'DDUDUUMUMM'
p362
ssg45
(dp363
g54
S'UDUDUMMMMM'
p364
sssg33
(dp365
g8
g76
sg11
g111
sg13
g144
sg15
g175
sg17
g204
sg19
g231
sg21
g256
sg23
g279
sg25
g302
sg27
g319
sg29
g336
sg31
g351
sg35
(dp366
g54
S'UDDUDDDDUM'
p367
ssg37
(dp368
g54
S'UDDDUDDDUM'
p369
ssg39
(dp370
g54
S'DUUUDDUDMD'
p371
ssg41
(dp372
g54
S'DUUDDUDUMU'
p373
ssg43
(dp374
g54
S'DDUDDUDUMM'
p375
ssg45
(dp376
g54
S'UDDDUDDDMM'
p377
sssg35
(dp378
g8
g78
sg11
g113
sg13
g146
sg15
g177
sg17
g206
sg19
g233
sg21
g258
sg23
g281
sg25
g304
sg27
g321
sg29
g338
sg31
g353
sg33
g366
sg37
(dp379
g54
S'UDDDUMDDUM'
p380
ssg39
(dp381
g54
S'DUUUDDUDUD'
p382
ssg41
(dp383
g54
S'DUUDDUDUDU'
p384
ssg43
(dp385
g54
S'DDUDUUDUDM'
p386
ssg45
(dp387
g54
S'UDDDUMDDDM'
p388
sssg37
(dp389
g8
g80
sg11
g115
sg13
g148
sg15
g179
sg17
g208
sg19
g235
sg21
g260
sg23
g283
sg25
g306
sg27
g323
sg29
g340
sg31
g355
sg33
g368
sg35
g379
sg39
(dp390
g54
S'DUDUDDMDUD'
p391
ssg41
(dp392
g54
S'DUUDDUMUDU'
p393
ssg43
(dp394
g54
S'DUUDDUMUDM'
p395
ssg45
(dp396
g54
S'UUDDDMMMDM'
p397
sssg39
(dp398
g11
g117
sg13
g150
sg15
g181
sg17
g210
sg19
g237
sg21
g262
sg23
g285
sg25
g294
sg27
g325
sg29
g342
sg31
g357
sg33
g370
sg35
g381
sg37
g390
sg8
g82
sg41
(dp399
g54
S'DUUDDDMDMD'
p400
ssg43
(dp401
g54
S'DUUDDDMDMD'
p402
ssg45
(dp403
g54
S'UUDDDDMDMD'
p404
sssg41
(dp405
g8
g84
sg11
g119
sg13
g152
sg15
g183
sg17
g212
sg19
g239
sg21
g264
sg23
g287
sg25
g308
sg27
g327
sg29
g344
sg31
g359
sg33
g372
sg35
g383
sg37
g392
sg39
g399
sg43
(dp406
g54
S'DDUMUUMUMD'
p407
ssg45
(dp408
g54
S'UDDMUDMDMD'
p409
sssg43
(dp410
g8
g86
sg11
g121
sg13
g154
sg15
g185
sg17
g214
sg19
g241
sg21
g266
sg23
g289
sg25
g310
sg27
g329
sg29
g346
sg31
g361
sg33
g374
sg35
g385
sg37
g394
sg39
g401
sg41
g406
sg45
(dp411
g54
S'UDDMUDMDMM'
p412
sssg45
(dp413
g8
g88
sg11
g123
sg13
g156
sg15
g187
sg17
g216
sg19
g243
sg21
g268
sg23
g291
sg25
g312
sg27
g331
sg29
g348
sg31
g363
sg33
g376
sg35
g387
sg37
g396
sg39
g403
sg41
g408
sg43
g411
sssS'adj'
p414
g51
sb.