(dp0
S'verbose'
p1
I01
sS'occurrences'
p2
NsS'threshold'
p3
NsS'mst'
p4
NsS'bootstrapCI'
p5
I1
sS'continuityroot'
p6
NsS'atlas'
p7
S'1'
p8
sS'continuity'
p9
NsS'spatialsignificance'
p10
NsS'graphroot'
p11
NsS'individualfileoutput'
p12
NsS'spatialbootstrapN'
p13
I100
sS'debug'
p14
g8
sS'noheader'
p15
NsS'minmaxbycount'
p16
NsS'inputfile'
p17
S'./pfg-cpl.txt'
p18
sS'occurrenceseriation'
p19
NsS'occurrence'
p20
NsS'frequency'
p21
g8
sS'stats'
p22
NsS'shapefile'
p23
g8
sS'noscreen'
p24
I1
sS'excel'
p25
g8
sS'filtered'
p26
I1
sS'pairwisefile'
p27
NsS'allsolutions'
p28
NsS'screen'
p29
NsS'largestonly'
p30
NsS'outputdirectory'
p31
S'output'
p32
sS'bootstrapSignificance'
p33
F0.95
sS'frequencyseriation'
p34
NsS'xyfile'
p35
S'./pfgXY.txt'
p36
sS'graphs'
p37
g8
sS'pdf'
p38
Ns.