(dp0
S'occurrenceseriation'
p1
NsS'verbose'
p2
I01
sS'frequency'
p3
S'1'
p4
sS'threshold'
p5
NsS'occurrence'
p6
NsS'stats'
p7
NsS'shapefile'
p8
g4
sS'noscreen'
p9
I1
sS'mst'
p10
NsS'excel'
p11
g4
sS'bootstrapCI'
p12
S'True'
p13
sS'continuityroot'
p14
NsS'atlas'
p15
g4
sS'filtered'
p16
I1
sS'pairwisefile'
p17
NsS'continuity'
p18
NsS'allsolutions'
p19
NsS'screen'
p20
NsS'largestonly'
p21
NsS'outputdirectory'
p22
S'output'
p23
sS'bootstrapSignificance'
p24
F0.95
sS'frequencyseriation'
p25
I1
sS'graphroot'
p26
NsS'individualfileoutput'
p27
NsS'xyfile'
p28
S'./pfgXY.txt'
p29
sS'graphs'
p30
g4
sS'debug'
p31
g4
sS'noheader'
p32
NsS'inputfile'
p33
S'./pfg-cpl.txt'
p34
s.