(dp0
S'13-N-15'
p1
(lp2
F0.56
aF0.28
aF0.12307692307692308
aF0.006923076923076923
aF0.0038461538461538464
aF0.006153846153846154
aF0.010769230769230769
aF0.002307692307692308
aF0.005384615384615384
aF0.0015384615384615385
asS'13-N-21'
p3
(lp4
F0.6938110749185668
aF0.11237785016286644
aF0.17100977198697068
aF0.006514657980456026
aF0.006514657980456026
aF0.0
aF0.0016286644951140066
aF0.006514657980456026
aF0.0016286644951140066
aF0.0
asS'13-P-8'
p5
(lp6
F0.4322916666666667
aF0.13020833333333334
aF0.22395833333333334
aF0.0
aF0.09375
aF0.08854166666666667
aF0.0
aF0.015625
aF0.0
aF0.015625
asS'13-N-16'
p7
(lp8
F0.24561403508771928
aF0.32748538011695905
aF0.40350877192982454
aF0.0
aF0.005847953216374269
aF0.017543859649122806
aF0.0
aF0.0
aF0.0
aF0.0
asS'13-O-11'
p9
(lp10
F0.2734375
aF0.5078125
aF0.1875
aF0.0
aF0.0
aF0.015625
aF0.0
aF0.0078125
aF0.0
aF0.0078125
asS'Holden_Lake'
p11
(lp12
F0.075
aF0.8166666666666667
aF0.019444444444444445
aF0.06666666666666667
aF0.005555555555555556
aF0.0
aF0.005555555555555556
aF0.002777777777777778
aF0.008333333333333333
aF0.0
asS'13-P-10'
p13
(lp14
F0.32967032967032966
aF0.16483516483516483
aF0.13186813186813187
aF0.0
aF0.13186813186813187
aF0.13186813186813187
aF0.0
aF0.07692307692307693
aF0.02197802197802198
aF0.01098901098901099
asS'13-O-7'
p15
(lp16
F0.47850770478507704
aF0.40389294403892945
aF0.054339010543390104
aF0.008110300081103
aF0.0170316301703163
aF0.015409570154095702
aF0.009732360097323601
aF0.006488240064882401
aF0.0056772100567721
aF0.0008110300081103001
asS'13-P-1'
p17
(lp18
F0.6777777777777778
aF0.1111111111111111
aF0.05
aF0.002777777777777778
aF0.044444444444444446
aF0.058333333333333334
aF0.0
aF0.03888888888888889
aF0.0
aF0.016666666666666666
asS'13-N-4'
p19
(lp20
F0.2946058091286307
aF0.27800829875518673
aF0.3983402489626556
aF0.0
aF0.012448132780082987
aF0.016597510373443983
aF0.0
aF0.0
aF0.0
aF0.0
asS'13-N-5'
p21
(lp22
F0.4430379746835443
aF0.13924050632911392
aF0.4177215189873418
aF0.0
aF0.0
aF0.0
aF0.0
aF0.0
aF0.0
aF0.0
asS'11-N-4'
p23
(lp24
F0.6034755134281201
aF0.3712480252764613
aF0.014218009478672985
aF0.0039494470774091624
aF0.0071090047393364926
aF0.0
aF0.0
aF0.0
aF0.0
aF0.0
asS'12-O-5'
p25
(lp26
F0.4811320754716981
aF0.36792452830188677
aF0.09905660377358491
aF0.01650943396226415
aF0.018867924528301886
aF0.009433962264150943
aF0.0047169811320754715
aF0.0023584905660377358
aF0.0
aF0.0
asS'13-O-5'
p27
(lp28
F0.540081919251024
aF0.3727325921591574
aF0.024575775307197192
aF0.007021650087770626
aF0.01930953774136922
aF0.01579871269748391
aF0.008777062609713282
aF0.0076067875950848445
aF0.002925687536571094
aF0.0011702750146284377
asS'11-N-1'
p29
(lp30
F0.6638526477359938
aF0.2478894858019954
aF0.04528012279355334
aF0.013046815042210284
aF0.02686108979278588
aF0.0
aF0.0
aF0.0
aF0.0030698388334612432
aF0.0
asS'12-N-3'
p31
(lp32
F0.5584944048830112
aF0.3336724313326551
aF0.07833163784333673
aF0.019328585961342827
aF0.004069175991861648
aF0.0
aF0.003051881993896236
aF0.001017293997965412
aF0.002034587995930824
aF0.0
asS'11-O-10'
p33
(lp34
F0.6332288401253918
aF0.32601880877742945
aF0.009404388714733543
aF0.025078369905956112
aF0.006269592476489028
aF0.0
aF0.0
aF0.0
aF0.0
aF0.0
asS'10-P-1'
p35
(lp36
F0.2549019607843137
aF0.40522875816993464
aF0.3006535947712418
aF0.0
aF0.0
aF0.0
aF0.0
aF0.0
aF0.0
aF0.0392156862745098
asS'13-O-10'
p37
(lp38
F0.26991150442477874
aF0.3274336283185841
aF0.3495575221238938
aF0.0
aF0.008849557522123894
aF0.035398230088495575
aF0.0
aF0.008849557522123894
aF0.0
aF0.0
asS'11-N-9'
p39
(lp40
F0.6965699208443272
aF0.2612137203166227
aF0.017150395778364115
aF0.0
aF0.025065963060686015
aF0.0
aF0.0
aF0.0
aF0.0
aF0.0
as.