(dp0
S'11-O-10'
p1
(lp2
S'13-N-15'
p3
aS'13-N-21'
p4
aS'13-P-8'
p5
aS'13-N-16'
p6
aS'13-O-11'
p7
aS'Holden_Lake'
p8
aS'13-P-10'
p9
aS'13-O-7'
p10
aS'13-P-1'
p11
aS'13-N-4'
p12
aS'13-N-5'
p13
aS'11-N-4'
p14
aS'12-O-5'
p15
aS'13-O-5'
p16
aS'11-N-1'
p17
aS'12-N-3'
p18
aS'10-P-1'
p19
aS'13-O-10'
p20
aS'11-N-9'
p21
asg4
(lp22
g3
ag5
ag6
ag7
ag8
ag9
ag10
ag11
ag12
ag13
ag14
ag15
ag16
ag17
ag18
ag1
ag19
ag20
ag21
asg5
(lp23
g3
ag4
ag6
ag7
ag8
ag9
ag10
ag11
ag12
ag13
ag14
ag15
ag16
ag17
ag18
ag1
ag19
ag20
ag21
asg6
(lp24
g3
ag4
ag5
ag7
ag8
ag9
ag10
ag11
ag12
ag13
ag14
ag15
ag16
ag17
ag18
ag1
ag19
ag20
ag21
asg16
(lp25
g3
ag4
ag5
ag6
ag7
ag8
ag9
ag10
ag11
ag12
ag13
ag14
ag15
ag17
ag18
ag1
ag19
ag20
ag21
asg3
(lp26
g4
ag5
ag6
ag7
ag8
ag9
ag10
ag11
ag12
ag13
ag14
ag15
ag16
ag17
ag18
ag1
ag19
ag20
ag21
asg9
(lp27
g3
ag4
ag5
ag6
ag7
ag8
ag10
ag11
ag12
ag13
ag14
ag15
ag16
ag17
ag18
ag1
ag19
ag20
ag21
asg10
(lp28
g3
ag4
ag5
ag6
ag7
ag8
ag9
ag11
ag12
ag13
ag14
ag15
ag16
ag17
ag18
ag1
ag19
ag20
ag21
asg8
(lp29
g3
ag4
ag5
ag6
ag7
ag9
ag10
ag11
ag12
ag13
ag14
ag15
ag16
ag17
ag18
ag1
ag19
ag20
ag21
asg12
(lp30
g3
ag4
ag5
ag6
ag7
ag8
ag9
ag10
ag11
ag13
ag14
ag15
ag16
ag17
ag18
ag1
ag19
ag20
ag21
asg13
(lp31
g3
ag4
ag5
ag6
ag7
ag8
ag9
ag10
ag11
ag12
ag14
ag15
ag16
ag17
ag18
ag1
ag19
ag20
ag21
asg14
(lp32
g3
ag4
ag5
ag6
ag7
ag8
ag9
ag10
ag11
ag12
ag13
ag15
ag16
ag17
ag18
ag1
ag19
ag20
ag21
asg15
(lp33
g3
ag4
ag5
ag6
ag7
ag8
ag9
ag10
ag11
ag12
ag13
ag14
ag16
ag17
ag18
ag1
ag19
ag20
ag21
asg18
(lp34
g3
ag4
ag5
ag6
ag7
ag8
ag9
ag10
ag11
ag12
ag13
ag14
ag15
ag16
ag17
ag1
ag19
ag20
ag21
asg17
(lp35
g3
ag4
ag5
ag6
ag7
ag8
ag9
ag10
ag11
ag12
ag13
ag14
ag15
ag16
ag18
ag1
ag19
ag20
ag21
asg19
(lp36
g3
ag4
ag5
ag6
ag7
ag8
ag9
ag10
ag11
ag12
ag13
ag14
ag15
ag16
ag17
ag18
ag1
ag20
ag21
asg11
(lp37
g3
ag4
ag5
ag6
ag7
ag8
ag9
ag10
ag12
ag13
ag14
ag15
ag16
ag17
ag18
ag1
ag19
ag20
ag21
asg7
(lp38
g3
ag4
ag5
ag6
ag8
ag9
ag10
ag11
ag12
ag13
ag14
ag15
ag16
ag17
ag18
ag1
ag19
ag20
ag21
asg20
(lp39
g3
ag4
ag5
ag6
ag7
ag8
ag9
ag10
ag11
ag12
ag13
ag14
ag15
ag16
ag17
ag18
ag1
ag19
ag21
asg21
(lp40
g3
ag4
ag5
ag6
ag7
ag8
ag9
ag10
ag11
ag12
ag13
ag14
ag15
ag16
ag17
ag18
ag1
ag19
ag20
as.